target datalayout = "e-m:e-p270:32:32-p271:32:32-p272:64:64-i64:64-i128:128-f80:128-n8:16:32:64-S128"
target triple = "x86_64-pc-linux-gnu"

%struct.pmix_shmem_t = type { %struct.pmix_object_t, i8, i64, ptr, ptr, [4097 x i8] }
%struct.pmix_object_t = type { %union.pthread_mutex_t, ptr, i32, %struct.pmix_tma }
%union.pthread_mutex_t = type { %struct.__pthread_mutex_s }
%struct.__pthread_mutex_s = type { i32, i32, i32, i32, i32, i16, i16, %struct.__pthread_internal_list }
%struct.__pthread_internal_list = type { ptr, ptr }
%struct.pmix_tma = type { ptr, ptr, ptr, ptr, ptr, ptr, ptr, ptr }

@.str = private unnamed_addr constant [37 x i8] c"PMIX ERROR: %s in file %s at line %d\00", align 1
@.str.1 = private unnamed_addr constant [13 x i8] c"pmix_shmem.c\00", align 1

; Function Attrs: nounwind uwtable
define i32 @pmix_shmem_segment_chmod(ptr noundef %0, i32 noundef %1) #0 {
  %3 = alloca ptr, align 8
  %4 = alloca i32, align 4
  %5 = alloca i32, align 4
  store ptr %0, ptr %3, align 8, !tbaa !3
  store i32 %1, ptr %4, align 4, !tbaa !12
  call void @llvm.lifetime.start.p0(i64 4, ptr %5) #7
  store i32 0, ptr %5, align 4, !tbaa !12
  %6 = load ptr, ptr %3, align 8, !tbaa !3
  %7 = getelementptr inbounds nuw %struct.pmix_shmem_t, ptr %6, i32 0, i32 5
  %8 = getelementptr inbounds [4097 x i8], ptr %7, i64 0, i64 0
  %9 = load i32, ptr %4, align 4, !tbaa !12
  %10 = call i32 @chmod(ptr noundef %8, i32 noundef %9) #7
  %11 = icmp ne i32 %10, 0
  br i1 %11, label %12, label %22

12:                                               ; preds = %2
  store i32 -1, ptr %5, align 4, !tbaa !12
  br label %13

13:                                               ; preds = %12
  %14 = load i32, ptr %5, align 4, !tbaa !12
  %15 = icmp ne i32 -2, %14
  br i1 %15, label %16, label %19

16:                                               ; preds = %13
  %17 = load i32, ptr %5, align 4, !tbaa !12
  %18 = call ptr @PMIx_Error_string(i32 noundef %17)
  call void (i32, ptr, ...) @pmix_output(i32 noundef 0, ptr noundef @.str, ptr noundef %18, ptr noundef @.str.1, i32 noundef 217)
  br label %19

19:                                               ; preds = %16, %13
  br label %20

20:                                               ; preds = %19
  br label %21

21:                                               ; preds = %20
  br label %22

22:                                               ; preds = %21, %2
  %23 = load i32, ptr %5, align 4, !tbaa !12
  call void @llvm.lifetime.end.p0(i64 4, ptr %5) #7
  ret i32 %23
}