; Function Attrs: nounwind uwtable
define range(i32 -1, 1) i32 @pmix_shmem_segment_chmod(ptr noundef readonly captures(none) %0, i32 noundef %1) local_unnamed_addr #0 {
  %3 = getelementptr inbounds nuw i8, ptr %0, i64 152
  %4 = tail call i32 @chmod(ptr noundef nonnull %3, i32 noundef %1) #8
  %.not = icmp eq i32 %4, 0
  br i1 %.not, label %7, label %5

5:                                                ; preds = %2
  %6 = tail call ptr @PMIx_Error_string(i32 noundef -1) #8
  tail call void (i32, ptr, ...) @pmix_output(i32 noundef 0, ptr noundef nonnull @.str, ptr noundef %6, ptr noundef nonnull @.str.1, i32 noundef 217) #8
  br label %7

7:                                                ; preds = %5, %2
  %.0 = phi i32 [ -1, %5 ], [ 0, %2 ]
  ret i32 %.0
}